(dp0
S'q_c1'
p1
S'c17fd5b83a584d15802419cf1b49d3f9|1517735393000|1517735393000'
p2
sS' _zap'
p3
S'5783a796-6691-4c2f-98b0-025da35a90c1'
p4
sS' aliyungf_tc'
p5
S'AQAAANDJfAzlEQkAhi2IdVnsB0cKFeA4'
p6
sS' _xsrf'
p7
S'd265e4f5-f950-47cf-859b-e1cf0ba5ea95'
p8
sS' r_cap_id'
p9
S'MGY4Mjc3NjQxN2RlNDI0ZGFjMDFhODMxMTFjNDkxYTU=|1517790355|548b0d468316f5e61b95a5163487b897f6f43fc7'
p10
sS' capsion_ticket'
p11
S'2|1:0|10:1518177003|14:capsion_ticket|44:YjkzMTk5Yzg3NmY4NGRhOTkyNDcwOGFiYWE2NGI1ZTU=|84e72d6fa2a367d5800f36c0c2b35132d620afbef224bd9d16630fc58cb13057'
p12
sS' l_cap_id'
p13
S'Y2Y5MmVmNGZmZDY1NDE5YjhhZjVkNjE0M2YyMWFlZTM=|1517790355|859dcf21317de1f9d30e524260ff0c1fe0ae918f'
p14
sS' cap_id'
p15
S'ZDAzNTJmMDFlNjk5NGRmMThhYWJiOWYyYjhhZTIyZjI=|1517790355|ecb9ce99f8f47f4f46b78440e5e9499a052203aa'
p16
sS' d_c0'
p17
S'AIAst7kYGA2PTuxnz9pvsR2yyIaYXasKUj8=|1517735393'
p18
s.